; ModuleID = '4/96.c'
source_filename = "4/96.c"
target datalayout = "e-m:e-p270:32:32-p271:32:32-p272:64:64-i64:64-f80:128-n8:16:32:64-S128"
target triple = "x86_64-pc-linux-gnu"

@.str = private unnamed_addr constant [6 x i8] c"%d %d\00", align 1
@.str.1 = private unnamed_addr constant [3 x i8] c"%d\00", align 1
@.str.2 = private unnamed_addr constant [4 x i8] c"%d\0A\00", align 1

; Function Attrs: noinline nounwind uwtable
define dso_local i32 @main() #0 {
  %1 = alloca i32, align 4
  %2 = alloca i32*, align 8
  %3 = alloca i32, align 4
  %4 = alloca i32, align 4
  %5 = alloca i32, align 4
  %6 = alloca i32, align 4
  store i32 0, i32* %1, align 4
  %7 = call i32 (i8*, ...) @__isoc99_scanf(i8* getelementptr inbounds ([6 x i8], [6 x i8]* @.str, i64 0, i64 0), i32* %3, i32* %4)
  %8 = load i32, i32* %3, align 4
  %9 = load i32, i32* %4, align 4
  %10 = mul nsw i32 %8, %9
  %11 = sext i32 %10 to i64
  %12 = mul i64 %11, 4
  %13 = call noalias i8* @malloc(i64 %12) #3
  %14 = bitcast i8* %13 to i32*
  store i32* %14, i32** %2, align 8
  store i32 0, i32* %5, align 4
  br label %15

15:                                               ; preds = %27, %0
  %16 = load i32, i32* %5, align 4
  %17 = load i32, i32* %3, align 4
  %18 = load i32, i32* %4, align 4
  %19 = mul nsw i32 %17, %18
  %20 = icmp slt i32 %16, %19
  br i1 %20, label %21, label %30

21:                                               ; preds = %15
  %22 = load i32*, i32** %2, align 8
  %23 = load i32, i32* %5, align 4
  %24 = sext i32 %23 to i64
  %25 = getelementptr inbounds i32, i32* %22, i64 %24
  %26 = call i32 (i8*, ...) @__isoc99_scanf(i8* getelementptr inbounds ([3 x i8], [3 x i8]* @.str.1, i64 0, i64 0), i32* %25)
  br label %27

27:                                               ; preds = %21
  %28 = load i32, i32* %5, align 4
  %29 = add nsw i32 %28, 1
  store i32 %29, i32* %5, align 4
  br label %15

30:                                               ; preds = %15
  store i32 1, i32* %5, align 4
  br label %31

31:                                               ; preds = %76, %30
  %32 = load i32, i32* %5, align 4
  %33 = load i32, i32* %4, align 4
  %34 = icmp sle i32 %32, %33
  br i1 %34, label %35, label %79

35:                                               ; preds = %31
  %36 = load i32, i32* %5, align 4
  store i32 %36, i32* %6, align 4
  br label %37

37:                                               ; preds = %56, %35
  %38 = load i32, i32* %4, align 4
  %39 = icmp ne i32 %38, 1
  br i1 %39, label %40, label %54

40:                                               ; preds = %37
  %41 = load i32, i32* %6, align 4
  %42 = load i32, i32* %4, align 4
  %43 = srem i32 %41, %42
  %44 = icmp ne i32 %43, 1
  br i1 %44, label %45, label %54

45:                                               ; preds = %40
  %46 = load i32, i32* %6, align 4
  %47 = load i32, i32* %4, align 4
  %48 = add nsw i32 %46, %47
  %49 = sub nsw i32 %48, 1
  %50 = load i32, i32* %3, align 4
  %51 = load i32, i32* %4, align 4
  %52 = mul nsw i32 %50, %51
  %53 = icmp slt i32 %49, %52
  br label %54

54:                                               ; preds = %45, %40, %37
  %55 = phi i1 [ false, %40 ], [ false, %37 ], [ %53, %45 ]
  br i1 %55, label %56, label %68

56:                                               ; preds = %54
  %57 = load i32*, i32** %2, align 8
  %58 = load i32, i32* %6, align 4
  %59 = sext i32 %58 to i64
  %60 = getelementptr inbounds i32, i32* %57, i64 %59
  %61 = getelementptr inbounds i32, i32* %60, i64 -1
  %62 = load i32, i32* %61, align 4
  %63 = call i32 (i8*, ...) @printf(i8* getelementptr inbounds ([4 x i8], [4 x i8]* @.str.2, i64 0, i64 0), i32 %62)
  %64 = load i32, i32* %6, align 4
  %65 = load i32, i32* %4, align 4
  %66 = add nsw i32 %64, %65
  %67 = sub nsw i32 %66, 1
  store i32 %67, i32* %6, align 4
  br label %37

68:                                               ; preds = %54
  %69 = load i32*, i32** %2, align 8
  %70 = load i32, i32* %6, align 4
  %71 = sext i32 %70 to i64
  %72 = getelementptr inbounds i32, i32* %69, i64 %71
  %73 = getelementptr inbounds i32, i32* %72, i64 -1
  %74 = load i32, i32* %73, align 4
  %75 = call i32 (i8*, ...) @printf(i8* getelementptr inbounds ([4 x i8], [4 x i8]* @.str.2, i64 0, i64 0), i32 %74)
  br label %76

76:                                               ; preds = %68
  %77 = load i32, i32* %5, align 4
  %78 = add nsw i32 %77, 1
  store i32 %78, i32* %5, align 4
  br label %31

79:                                               ; preds = %31
  store i32 2, i32* %5, align 4
  br label %80

80:                                               ; preds = %127, %79
  %81 = load i32, i32* %5, align 4
  %82 = load i32, i32* %3, align 4
  %83 = icmp sle i32 %81, %82
  br i1 %83, label %84, label %130

84:                                               ; preds = %80
  %85 = load i32, i32* %5, align 4
  %86 = load i32, i32* %4, align 4
  %87 = mul nsw i32 %85, %86
  store i32 %87, i32* %6, align 4
  br label %88

88:                                               ; preds = %107, %84
  %89 = load i32, i32* %4, align 4
  %90 = icmp ne i32 %89, 1
  br i1 %90, label %91, label %105

91:                                               ; preds = %88
  %92 = load i32, i32* %6, align 4
  %93 = load i32, i32* %4, align 4
  %94 = srem i32 %92, %93
  %95 = icmp ne i32 %94, 1
  br i1 %95, label %96, label %105

96:                                               ; preds = %91
  %97 = load i32, i32* %6, align 4
  %98 = load i32, i32* %4, align 4
  %99 = add nsw i32 %97, %98
  %100 = sub nsw i32 %99, 1
  %101 = load i32, i32* %3, align 4
  %102 = load i32, i32* %4, align 4
  %103 = mul nsw i32 %101, %102
  %104 = icmp slt i32 %100, %103
  br label %105

105:                                              ; preds = %96, %91, %88
  %106 = phi i1 [ false, %91 ], [ false, %88 ], [ %104, %96 ]
  br i1 %106, label %107, label %119

107:                                              ; preds = %105
  %108 = load i32*, i32** %2, align 8
  %109 = load i32, i32* %6, align 4
  %110 = sext i32 %109 to i64
  %111 = getelementptr inbounds i32, i32* %108, i64 %110
  %112 = getelementptr inbounds i32, i32* %111, i64 -1
  %113 = load i32, i32* %112, align 4
  %114 = call i32 (i8*, ...) @printf(i8* getelementptr inbounds ([4 x i8], [4 x i8]* @.str.2, i64 0, i64 0), i32 %113)
  %115 = load i32, i32* %6, align 4
  %116 = load i32, i32* %4, align 4
  %117 = add nsw i32 %115, %116
  %118 = sub nsw i32 %117, 1
  store i32 %118, i32* %6, align 4
  br label %88

119:                                              ; preds = %105
  %120 = load i32*, i32** %2, align 8
  %121 = load i32, i32* %6, align 4
  %122 = sext i32 %121 to i64
  %123 = getelementptr inbounds i32, i32* %120, i64 %122
  %124 = getelementptr inbounds i32, i32* %123, i64 -1
  %125 = load i32, i32* %124, align 4
  %126 = call i32 (i8*, ...) @printf(i8* getelementptr inbounds ([4 x i8], [4 x i8]* @.str.2, i64 0, i64 0), i32 %125)
  br label %127

127:                                              ; preds = %119
  %128 = load i32, i32* %5, align 4
  %129 = add nsw i32 %128, 1
  store i32 %129, i32* %5, align 4
  br label %80

130:                                              ; preds = %80
  %131 = load i32, i32* %1, align 4
  ret i32 %131
}

declare dso_local i32 @__isoc99_scanf(i8*, ...) #1

; Function Attrs: nounwind
declare dso_local noalias i8* @malloc(i64) #2

declare dso_local i32 @printf(i8*, ...) #1


!llvm.module.flags = !{!0}
!llvm.ident = !{!1}

!0 = !{i32 1, !"wchar_size", i32 4}
!1 = !{!"clang version 10.0.0-4ubuntu1 "}
